target datalayout = "e-m:e-p270:32:32-p271:32:32-p272:64:64-i64:64-i128:128-f80:128-n8:16:32:64-S128"
target triple = "x86_64-unknown-linux-gnu"

%"class.icu_75::StringPiece" = type <{ ptr, i32, [4 x i8] }>
%"class.icu_75::LocalePriorityList" = type { ptr, i32, i32, i8, ptr }
%"class.icu_75::LocalePriorityList::Iterator" = type <{ %"class.icu_75::Locale::Iterator", ptr, i32, i32, i32, [4 x i8] }>
%"class.icu_75::Locale::Iterator" = type { ptr }

@_ZTVN6icu_756Locale8IteratorE = external unnamed_addr constant { [6 x ptr] }, align 8

; Function Attrs: mustprogress nounwind uwtable
define linkonce_odr noundef i32 @_ZNK6icu_7518LocalePriorityList9getLengthEv(ptr noundef nonnull align 8 dereferenceable(32) %this) #0 comdat align 2 {
entry:
  %this.addr = alloca ptr, align 8
  store ptr %this, ptr %this.addr, align 8
  %this1 = load ptr, ptr %this.addr, align 8
  %listLength = getelementptr inbounds %"class.icu_75::LocalePriorityList", ptr %this1, i32 0, i32 1
  %0 = load i32, ptr %listLength, align 8
  %numRemoved = getelementptr inbounds %"class.icu_75::LocalePriorityList", ptr %this1, i32 0, i32 2
  %1 = load i32, ptr %numRemoved, align 4
  %sub = sub nsw i32 %0, %1
  ret i32 %sub
}

; Function Attrs: mustprogress nounwind uwtable
define linkonce_odr void @_ZN6icu_756Locale8IteratorC2Ev(ptr noundef nonnull align 8 dereferenceable(8) %this) unnamed_addr #0 comdat align 2 {
entry:
  %this.addr = alloca ptr, align 8
  store ptr %this, ptr %this.addr, align 8
  %this1 = load ptr, ptr %this.addr, align 8
  store ptr getelementptr inbounds ({ [6 x ptr] }, ptr @_ZTVN6icu_756Locale8IteratorE, i32 0, i32 0, i32 2), ptr %this1, align 8
  ret void
}

; Function Attrs: mustprogress uwtable
define linkonce_odr void @_ZN6icu_7518LocalePriorityList8IteratorC2ERKS0_(ptr noundef nonnull align 8 dereferenceable(28) %this, ptr noundef nonnull align 8 dereferenceable(32) %list) unnamed_addr #1 comdat align 2 personality ptr @__gxx_personality_v0 {
entry:
  %this.addr = alloca ptr, align 8
  %list.addr = alloca ptr, align 8
  %exn.slot = alloca ptr, align 8
  %ehselector.slot = alloca i32, align 4
  store ptr %this, ptr %this.addr, align 8
  store ptr %list, ptr %list.addr, align 8
  %this1 = load ptr, ptr %this.addr, align 8
  call void @_ZN6icu_756Locale8IteratorC2Ev(ptr noundef nonnull align 8 dereferenceable(8) %this1) #11
  store ptr getelementptr inbounds ({ [6 x ptr] }, ptr @_ZTVN6icu_7518LocalePriorityList8IteratorE, i32 0, i32 0, i32 2), ptr %this1, align 8
  %list2 = getelementptr inbounds %"class.icu_75::LocalePriorityList::Iterator", ptr %this1, i32 0, i32 1
  %0 = load ptr, ptr %list.addr, align 8
  store ptr %0, ptr %list2, align 8
  %index = getelementptr inbounds %"class.icu_75::LocalePriorityList::Iterator", ptr %this1, i32 0, i32 2
  store i32 0, ptr %index, align 8
  %count = getelementptr inbounds %"class.icu_75::LocalePriorityList::Iterator", ptr %this1, i32 0, i32 3
  store i32 0, ptr %count, align 4
  %length = getelementptr inbounds %"class.icu_75::LocalePriorityList::Iterator", ptr %this1, i32 0, i32 4
  %1 = load ptr, ptr %list.addr, align 8
  %call = invoke noundef i32 @_ZNK6icu_7518LocalePriorityList9getLengthEv(ptr noundef nonnull align 8 dereferenceable(32) %1)
          to label %invoke.cont unwind label %lpad

invoke.cont:                                      ; preds = %entry
  store i32 %call, ptr %length, align 8
  ret void

lpad:                                             ; preds = %entry
  %2 = landingpad { ptr, i32 }
          cleanup
  %3 = extractvalue { ptr, i32 } %2, 0
  store ptr %3, ptr %exn.slot, align 8
  %4 = extractvalue { ptr, i32 } %2, 1
  store i32 %4, ptr %ehselector.slot, align 4
  call void @_ZN6icu_756Locale8IteratorD2Ev(ptr noundef nonnull align 8 dereferenceable(8) %this1) #11
  br label %eh.resume

eh.resume:                                        ; preds = %lpad
  %exn = load ptr, ptr %exn.slot, align 8
  %sel = load i32, ptr %ehselector.slot, align 4
  %lpad.val = insertvalue { ptr, i32 } poison, ptr %exn, 0
  %lpad.val3 = insertvalue { ptr, i32 } %lpad.val, i32 %sel, 1
  resume { ptr, i32 } %lpad.val3
}

; Function Attrs: mustprogress nounwind uwtable
define linkonce_odr void @_ZN6icu_7518LocalePriorityList8IteratorD2Ev(ptr noundef nonnull align 8 dereferenceable(28) %this) unnamed_addr #0 comdat align 2 {
entry:
  %this.addr = alloca ptr, align 8
  store ptr %this, ptr %this.addr, align 8
  %this1 = load ptr, ptr %this.addr, align 8
  call void @_ZN6icu_756Locale8IteratorD2Ev(ptr noundef nonnull align 8 dereferenceable(8) %this1) #11
  ret void
}

; Function Attrs: mustprogress uwtable
define linkonce_odr void @_ZNK6icu_7518LocalePriorityList8iteratorEv(ptr noalias sret(%"class.icu_75::LocalePriorityList::Iterator") align 8 %agg.result, ptr noundef nonnull align 8 dereferenceable(32) %this) #1 comdat align 2 {
entry:
  %result.ptr = alloca ptr, align 8
  %this.addr = alloca ptr, align 8
  store ptr %agg.result, ptr %result.ptr, align 8
  store ptr %this, ptr %this.addr, align 8
  %this1 = load ptr, ptr %this.addr, align 8
  call void @_ZN6icu_7518LocalePriorityList8IteratorC2ERKS0_(ptr noundef nonnull align 8 dereferenceable(28) %agg.result, ptr noundef nonnull align 8 dereferenceable(32) %this1)
  ret void
}

; Function Attrs: mustprogress nounwind uwtable
define internal noundef signext i8 @_ZL9U_FAILURE10UErrorCode(i32 noundef %code) #0 {
entry:
  %code.addr = alloca i32, align 4
  store i32 %code, ptr %code.addr, align 4
  %0 = load i32, ptr %code.addr, align 4
  %cmp = icmp sgt i32 %0, 0
  %conv = zext i1 %cmp to i8
  ret i8 %conv
}

; Function Attrs: mustprogress uwtable
define i32 @uloc_acceptLanguageFromHTTP_75(ptr noundef %result, i32 noundef %resultAvailable, ptr noundef %outResult, ptr noundef %httpAcceptLanguage, ptr noundef %availableLocales, ptr noundef %status) #1 personality ptr @__gxx_personality_v0 {
entry:
  %retval = alloca i32, align 4
  %result.addr = alloca ptr, align 8
  %resultAvailable.addr = alloca i32, align 4
  %outResult.addr = alloca ptr, align 8
  %httpAcceptLanguage.addr = alloca ptr, align 8
  %availableLocales.addr = alloca ptr, align 8
  %status.addr = alloca ptr, align 8
  %list = alloca %"class.icu_75::LocalePriorityList", align 8
  %agg.tmp = alloca %"class.icu_75::StringPiece", align 8
  %desiredLocales = alloca %"class.icu_75::LocalePriorityList::Iterator", align 8
  %exn.slot = alloca ptr, align 8
  %ehselector.slot = alloca i32, align 4
  store ptr %result, ptr %result.addr, align 8
  store i32 %resultAvailable, ptr %resultAvailable.addr, align 4
  store ptr %outResult, ptr %outResult.addr, align 8
  store ptr %httpAcceptLanguage, ptr %httpAcceptLanguage.addr, align 8
  store ptr %availableLocales, ptr %availableLocales.addr, align 8
  store ptr %status, ptr %status.addr, align 8
  %0 = load ptr, ptr %status.addr, align 8
  %1 = load i32, ptr %0, align 4
  %call = call noundef signext i8 @_ZL9U_FAILURE10UErrorCode(i32 noundef %1)
  %tobool = icmp ne i8 %call, 0
  br i1 %tobool, label %if.then, label %if.end

if.then:                                          ; preds = %entry
  store i32 0, ptr %retval, align 4
  br label %return

if.end:                                           ; preds = %entry
  %2 = load ptr, ptr %result.addr, align 8
  %cmp = icmp eq ptr %2, null
  br i1 %cmp, label %cond.true, label %cond.false

cond.true:                                        ; preds = %if.end
  %3 = load i32, ptr %resultAvailable.addr, align 4
  %cmp1 = icmp ne i32 %3, 0
  br i1 %cmp1, label %if.then6, label %lor.lhs.false

cond.false:                                       ; preds = %if.end
  %4 = load i32, ptr %resultAvailable.addr, align 4
  %cmp2 = icmp slt i32 %4, 0
  br i1 %cmp2, label %if.then6, label %lor.lhs.false

lor.lhs.false:                                    ; preds = %cond.false, %cond.true
  %5 = load ptr, ptr %httpAcceptLanguage.addr, align 8
  %cmp3 = icmp eq ptr %5, null
  br i1 %cmp3, label %if.then6, label %lor.lhs.false4

lor.lhs.false4:                                   ; preds = %lor.lhs.false
  %6 = load ptr, ptr %availableLocales.addr, align 8
  %cmp5 = icmp eq ptr %6, null
  br i1 %cmp5, label %if.then6, label %if.end7

if.then6:                                         ; preds = %lor.lhs.false4, %lor.lhs.false, %cond.false, %cond.true
  %7 = load ptr, ptr %status.addr, align 8
  store i32 1, ptr %7, align 4
  store i32 0, ptr %retval, align 4
  br label %return

if.end7:                                          ; preds = %lor.lhs.false4
  %8 = load ptr, ptr %httpAcceptLanguage.addr, align 8
  call void @_ZN6icu_7511StringPieceC1EPKc(ptr noundef nonnull align 8 dereferenceable(12) %agg.tmp, ptr noundef %8)
  %9 = load ptr, ptr %status.addr, align 8
  %10 = getelementptr inbounds { ptr, i32 }, ptr %agg.tmp, i32 0, i32 0
  %11 = load ptr, ptr %10, align 8
  %12 = getelementptr inbounds { ptr, i32 }, ptr %agg.tmp, i32 0, i32 1
  %13 = load i32, ptr %12, align 8
  call void @_ZN6icu_7518LocalePriorityListC1ENS_11StringPieceER10UErrorCode(ptr noundef nonnull align 8 dereferenceable(32) %list, ptr %11, i32 %13, ptr noundef nonnull align 4 dereferenceable(4) %9)
  invoke void @_ZNK6icu_7518LocalePriorityList8iteratorEv(ptr sret(%"class.icu_75::LocalePriorityList::Iterator") align 8 %desiredLocales, ptr noundef nonnull align 8 dereferenceable(32) %list)
          to label %invoke.cont unwind label %lpad

invoke.cont:                                      ; preds = %if.end7
  %14 = load ptr, ptr %availableLocales.addr, align 8
  %15 = load ptr, ptr %result.addr, align 8
  %16 = load i32, ptr %resultAvailable.addr, align 4
  %17 = load ptr, ptr %outResult.addr, align 8
  %18 = load ptr, ptr %status.addr, align 8
  %call10 = invoke noundef i32 @_ZN12_GLOBAL__N_114acceptLanguageER12UEnumerationRN6icu_756Locale8IteratorEPciP13UAcceptResultR10UErrorCode(ptr noundef nonnull align 1 %14, ptr noundef nonnull align 8 dereferenceable(8) %desiredLocales, ptr noundef %15, i32 noundef %16, ptr noundef %17, ptr noundef nonnull align 4 dereferenceable(4) %18)
          to label %invoke.cont9 unwind label %lpad8

invoke.cont9:                                     ; preds = %invoke.cont
  store i32 %call10, ptr %retval, align 4
  call void @_ZN6icu_7518LocalePriorityList8IteratorD2Ev(ptr noundef nonnull align 8 dereferenceable(28) %desiredLocales) #11
  call void @_ZN6icu_7518LocalePriorityListD1Ev(ptr noundef nonnull align 8 dereferenceable(32) %list) #11
  br label %return

lpad:                                             ; preds = %if.end7
  %19 = landingpad { ptr, i32 }
          cleanup
  %20 = extractvalue { ptr, i32 } %19, 0
  store ptr %20, ptr %exn.slot, align 8
  %21 = extractvalue { ptr, i32 } %19, 1
  store i32 %21, ptr %ehselector.slot, align 4
  br label %ehcleanup

lpad8:                                            ; preds = %invoke.cont
  %22 = landingpad { ptr, i32 }
          cleanup
  %23 = extractvalue { ptr, i32 } %22, 0
  store ptr %23, ptr %exn.slot, align 8
  %24 = extractvalue { ptr, i32 } %22, 1
  store i32 %24, ptr %ehselector.slot, align 4
  call void @_ZN6icu_7518LocalePriorityList8IteratorD2Ev(ptr noundef nonnull align 8 dereferenceable(28) %desiredLocales) #11
  br label %ehcleanup

ehcleanup:                                        ; preds = %lpad8, %lpad
  call void @_ZN6icu_7518LocalePriorityListD1Ev(ptr noundef nonnull align 8 dereferenceable(32) %list) #11
  br label %eh.resume

return:                                           ; preds = %invoke.cont9, %if.then6, %if.then
  %25 = load i32, ptr %retval, align 4
  ret i32 %25

eh.resume:                                        ; preds = %ehcleanup
  %exn = load ptr, ptr %exn.slot, align 8
  %sel = load i32, ptr %ehselector.slot, align 4
  %lpad.val = insertvalue { ptr, i32 } poison, ptr %exn, 0
  %lpad.val11 = insertvalue { ptr, i32 } %lpad.val, i32 %sel, 1
  resume { ptr, i32 } %lpad.val11
}