; Function Attrs: mustprogress uwtable
define noundef i32 @uloc_acceptLanguageFromHTTP_75(ptr noundef %result, i32 noundef %resultAvailable, ptr noundef %outResult, ptr noundef %httpAcceptLanguage, ptr noundef %availableLocales, ptr noundef %status) local_unnamed_addr #2 personality ptr @__gxx_personality_v0 {
entry:
  %list = alloca %"class.icu_75::LocalePriorityList", align 8
  %agg.tmp = alloca %"class.icu_75::StringPiece", align 8
  %desiredLocales = alloca %"class.icu_75::LocalePriorityList::Iterator", align 8
  %0 = load i32, ptr %status, align 4
  %cmp.i = icmp slt i32 %0, 1
  br i1 %cmp.i, label %if.end, label %return

if.end:                                           ; preds = %entry
  %cmp = icmp eq ptr %result, null
  br i1 %cmp, label %cond.true, label %cond.false

cond.true:                                        ; preds = %if.end
  %cmp1.not = icmp eq i32 %resultAvailable, 0
  br i1 %cmp1.not, label %lor.lhs.false, label %if.then6

cond.false:                                       ; preds = %if.end
  %cmp2 = icmp slt i32 %resultAvailable, 0
  br i1 %cmp2, label %if.then6, label %lor.lhs.false

lor.lhs.false:                                    ; preds = %cond.false, %cond.true
  %cmp3 = icmp eq ptr %httpAcceptLanguage, null
  %cmp5 = icmp eq ptr %availableLocales, null
  %or.cond = or i1 %cmp3, %cmp5
  br i1 %or.cond, label %if.then6, label %invoke.cont

if.then6:                                         ; preds = %lor.lhs.false, %cond.false, %cond.true
  store i32 1, ptr %status, align 4
  br label %return

invoke.cont:                                      ; preds = %lor.lhs.false
  call void @_ZN6icu_7511StringPieceC1EPKc(ptr noundef nonnull align 8 dereferenceable(12) %agg.tmp, ptr noundef nonnull %httpAcceptLanguage)
  %1 = load ptr, ptr %agg.tmp, align 8
  %2 = getelementptr inbounds i8, ptr %agg.tmp, i64 8
  %3 = load i32, ptr %2, align 8
  call void @_ZN6icu_7518LocalePriorityListC1ENS_11StringPieceER10UErrorCode(ptr noundef nonnull align 8 dereferenceable(32) %list, ptr %1, i32 %3, ptr noundef nonnull align 4 dereferenceable(4) %status)
  call void @llvm.experimental.noalias.scope.decl(metadata !65)
  store ptr getelementptr inbounds ({ [6 x ptr] }, ptr @_ZTVN6icu_7518LocalePriorityList8IteratorE, i64 0, i32 0, i64 2), ptr %desiredLocales, align 8, !alias.scope !65
  %list2.i.i = getelementptr inbounds i8, ptr %desiredLocales, i64 8
  store ptr %list, ptr %list2.i.i, align 8, !alias.scope !65
  %index.i.i = getelementptr inbounds i8, ptr %desiredLocales, i64 16
  store i32 0, ptr %index.i.i, align 8, !alias.scope !65
  %count.i.i = getelementptr inbounds i8, ptr %desiredLocales, i64 20
  store i32 0, ptr %count.i.i, align 4, !alias.scope !65
  %length.i.i = getelementptr inbounds i8, ptr %desiredLocales, i64 24
  %listLength.i.i.i = getelementptr inbounds i8, ptr %list, i64 8
  %4 = load i32, ptr %listLength.i.i.i, align 8, !noalias !65
  %numRemoved.i.i.i = getelementptr inbounds i8, ptr %list, i64 12
  %5 = load i32, ptr %numRemoved.i.i.i, align 4, !noalias !65
  %sub.i.i.i = sub nsw i32 %4, %5
  store i32 %sub.i.i.i, ptr %length.i.i, align 8, !alias.scope !65
  %call10 = invoke fastcc noundef i32 @_ZN12_GLOBAL__N_114acceptLanguageER12UEnumerationRN6icu_756Locale8IteratorEPciP13UAcceptResultR10UErrorCode(ptr noundef nonnull align 1 %availableLocales, ptr noundef nonnull align 8 dereferenceable(8) %desiredLocales, ptr noundef %result, i32 noundef %resultAvailable, ptr noundef %outResult, ptr noundef nonnull align 4 dereferenceable(4) %status)
          to label %invoke.cont9 unwind label %lpad8

invoke.cont9:                                     ; preds = %invoke.cont
  call void @_ZN6icu_756Locale8IteratorD2Ev(ptr noundef nonnull align 8 dereferenceable(8) %desiredLocales) #15
  call void @_ZN6icu_7518LocalePriorityListD1Ev(ptr noundef nonnull align 8 dereferenceable(32) %list) #15
  br label %return

lpad8:                                            ; preds = %invoke.cont
  %6 = landingpad { ptr, i32 }
          cleanup
  call void @_ZN6icu_756Locale8IteratorD2Ev(ptr noundef nonnull align 8 dereferenceable(8) %desiredLocales) #15
  call void @_ZN6icu_7518LocalePriorityListD1Ev(ptr noundef nonnull align 8 dereferenceable(32) %list) #15
  resume { ptr, i32 } %6

return:                                           ; preds = %entry, %invoke.cont9, %if.then6
  %retval.0 = phi i32 [ 0, %if.then6 ], [ %call10, %invoke.cont9 ], [ 0, %entry ]
  ret i32 %retval.0
}